; Function Attrs: null_pointer_is_valid sspstrong uwtable
define internal fastcc void @decode_GIAS_SubmitStandingQueryRequest_get_number_of_hits(ptr noundef %0, ptr noundef %1, ptr noundef %2, ptr noundef %3, ptr noundef %4, ptr noundef readonly captures(none) %5, i1 noundef zeroext %6) unnamed_addr #0 {
  %8 = getelementptr inbounds nuw i8, ptr %5, i64 7
  %9 = load i8, ptr %8, align 1
  switch i8 %9, label %21 [
    i8 0, label %24
    i8 1, label %10
  ]

10:                                               ; preds = %7
  %11 = getelementptr inbounds nuw i8, ptr %5, i64 16
  %12 = load i32, ptr %11, align 8
  switch i32 %12, label %19 [
    i32 0, label %13
    i32 1, label %24
  ]

13:                                               ; preds = %10
  %14 = load i32, ptr @hf_GIAS_SubmitStandingQueryRequest_get_number_of_hits_return, align 4
  %15 = load i32, ptr %4, align 4
  %16 = add i32 %15, -4
  %17 = tail call i32 @get_CDR_ulong(ptr noundef %0, ptr noundef %4, i1 noundef zeroext %6, i32 noundef 12)
  %18 = tail call ptr @proto_tree_add_uint(ptr noundef %2, i32 noundef %14, ptr noundef %0, i32 noundef %16, i32 noundef 4, i32 noundef %17)
  br label %24

19:                                               ; preds = %10
  %20 = tail call ptr (ptr, ptr, ptr, ptr, ...) @expert_add_info_format(ptr noundef %1, ptr noundef %3, ptr noundef nonnull @ei_gias_unknown_exception, ptr noundef nonnull @.str.826, i32 noundef %12)
  br label %24

21:                                               ; preds = %7
  %22 = zext i8 %9 to i32
  %23 = tail call ptr (ptr, ptr, ptr, ptr, ...) @expert_add_info_format(ptr noundef %1, ptr noundef %3, ptr noundef nonnull @ei_gias_unknown_giop_msg, ptr noundef nonnull @.str.827, i32 noundef %22)
  br label %24

24:                                               ; preds = %10, %13, %19, %21, %7
  ret void
}